target datalayout = "e-m:e-p270:32:32-p271:32:32-p272:64:64-i64:64-i128:128-f80:128-n8:16:32:64-S128"
target triple = "x86_64-pc-linux-gnu"

%struct.hyperLogLogState = type { i8, i64, double, ptr, i64 }

@.str = private unnamed_addr constant [45 x i8] c"bit width must be between 4 and 16 inclusive\00", align 1
@.str.1 = private unnamed_addr constant [14 x i8] c"hyperloglog.c\00", align 1
@__func__.initHyperLogLog = private unnamed_addr constant [16 x i8] c"initHyperLogLog\00", align 1

; Function Attrs: nounwind uwtable
define dso_local void @initHyperLogLog(ptr noundef %0, i8 noundef zeroext %1) #0 {
  %3 = alloca ptr, align 8
  %4 = alloca i8, align 1
  %5 = alloca double, align 8
  store ptr %0, ptr %3, align 8
  store i8 %1, ptr %4, align 1
  call void @llvm.lifetime.start.p0(i64 8, ptr %5) #7
  %6 = load i8, ptr %4, align 1
  %7 = zext i8 %6 to i32
  %8 = icmp slt i32 %7, 4
  br i1 %8, label %13, label %9

9:                                                ; preds = %2
  %10 = load i8, ptr %4, align 1
  %11 = zext i8 %10 to i32
  %12 = icmp sgt i32 %11, 16
  br i1 %12, label %13, label %24

13:                                               ; preds = %9, %2
  br label %14

14:                                               ; preds = %13
  br i1 true, label %15, label %17

15:                                               ; preds = %14
  %16 = call zeroext i1 @errstart_cold(i32 noundef 21, ptr noundef null) #8
  br i1 %16, label %19, label %21

17:                                               ; preds = %14
  %18 = call zeroext i1 @errstart(i32 noundef 21, ptr noundef null)
  br i1 %18, label %19, label %21

19:                                               ; preds = %17, %15
  %20 = call i32 (ptr, ...) @errmsg_internal(ptr noundef @.str)
  call void @errfinish(ptr noundef @.str.1, i32 noundef 71, ptr noundef @__func__.initHyperLogLog)
  br label %21

21:                                               ; preds = %19, %17, %15
  unreachable

22:                                               ; No predecessors!
  br label %23

23:                                               ; preds = %22
  br label %24

24:                                               ; preds = %23, %9
  %25 = load i8, ptr %4, align 1
  %26 = load ptr, ptr %3, align 8
  %27 = getelementptr inbounds nuw %struct.hyperLogLogState, ptr %26, i32 0, i32 0
  store i8 %25, ptr %27, align 8
  %28 = load i8, ptr %4, align 1
  %29 = zext i8 %28 to i32
  %30 = zext i32 %29 to i64
  %31 = shl i64 1, %30
  %32 = load ptr, ptr %3, align 8
  %33 = getelementptr inbounds nuw %struct.hyperLogLogState, ptr %32, i32 0, i32 1
  store i64 %31, ptr %33, align 8
  %34 = load ptr, ptr %3, align 8
  %35 = getelementptr inbounds nuw %struct.hyperLogLogState, ptr %34, i32 0, i32 1
  %36 = load i64, ptr %35, align 8
  %37 = mul i64 1, %36
  %38 = add i64 %37, 1
  %39 = load ptr, ptr %3, align 8
  %40 = getelementptr inbounds nuw %struct.hyperLogLogState, ptr %39, i32 0, i32 4
  store i64 %38, ptr %40, align 8
  %41 = load ptr, ptr %3, align 8
  %42 = getelementptr inbounds nuw %struct.hyperLogLogState, ptr %41, i32 0, i32 4
  %43 = load i64, ptr %42, align 8
  %44 = call ptr @palloc0(i64 noundef %43)
  %45 = load ptr, ptr %3, align 8
  %46 = getelementptr inbounds nuw %struct.hyperLogLogState, ptr %45, i32 0, i32 3
  store ptr %44, ptr %46, align 8
  %47 = load ptr, ptr %3, align 8
  %48 = getelementptr inbounds nuw %struct.hyperLogLogState, ptr %47, i32 0, i32 1
  %49 = load i64, ptr %48, align 8
  switch i64 %49, label %53 [
    i64 16, label %50
    i64 32, label %51
    i64 64, label %52
  ]

50:                                               ; preds = %24
  store double 6.730000e-01, ptr %5, align 8
  br label %61

51:                                               ; preds = %24
  store double 6.970000e-01, ptr %5, align 8
  br label %61

52:                                               ; preds = %24
  store double 7.090000e-01, ptr %5, align 8
  br label %61

53:                                               ; preds = %24
  %54 = load ptr, ptr %3, align 8
  %55 = getelementptr inbounds nuw %struct.hyperLogLogState, ptr %54, i32 0, i32 1
  %56 = load i64, ptr %55, align 8
  %57 = uitofp i64 %56 to double
  %58 = fdiv double 1.079000e+00, %57
  %59 = fadd double 1.000000e+00, %58
  %60 = fdiv double 7.213000e-01, %59
  store double %60, ptr %5, align 8
  br label %61

61:                                               ; preds = %53, %52, %51, %50
  %62 = load double, ptr %5, align 8
  %63 = load ptr, ptr %3, align 8
  %64 = getelementptr inbounds nuw %struct.hyperLogLogState, ptr %63, i32 0, i32 1
  %65 = load i64, ptr %64, align 8
  %66 = uitofp i64 %65 to double
  %67 = fmul double %62, %66
  %68 = load ptr, ptr %3, align 8
  %69 = getelementptr inbounds nuw %struct.hyperLogLogState, ptr %68, i32 0, i32 1
  %70 = load i64, ptr %69, align 8
  %71 = uitofp i64 %70 to double
  %72 = fmul double %67, %71
  %73 = load ptr, ptr %3, align 8
  %74 = getelementptr inbounds nuw %struct.hyperLogLogState, ptr %73, i32 0, i32 2
  store double %72, ptr %74, align 8
  call void @llvm.lifetime.end.p0(i64 8, ptr %5) #7
  ret void
}

; Function Attrs: nounwind uwtable
define dso_local void @initHyperLogLogError(ptr noundef %0, double noundef %1) #0 {
  %3 = alloca ptr, align 8
  %4 = alloca double, align 8
  %5 = alloca i8, align 1
  %6 = alloca double, align 8
  %7 = alloca i32, align 4
  store ptr %0, ptr %3, align 8
  store double %1, ptr %4, align 8
  call void @llvm.lifetime.start.p0(i64 1, ptr %5) #7
  store i8 4, ptr %5, align 1
  br label %8

8:                                                ; preds = %29, %2
  %9 = load i8, ptr %5, align 1
  %10 = zext i8 %9 to i32
  %11 = icmp slt i32 %10, 16
  br i1 %11, label %12, label %30

12:                                               ; preds = %8
  call void @llvm.lifetime.start.p0(i64 8, ptr %6) #7
  %13 = load i8, ptr %5, align 1
  %14 = zext i8 %13 to i32
  %15 = zext i32 %14 to i64
  %16 = shl i64 1, %15
  %17 = uitofp i64 %16 to double
  store double %17, ptr %6, align 8
  %18 = load double, ptr %6, align 8
  %19 = call double @sqrt(double noundef %18) #7
  %20 = fdiv double 1.040000e+00, %19
  %21 = load double, ptr %4, align 8
  %22 = fcmp olt double %20, %21
  br i1 %22, label %23, label %24

23:                                               ; preds = %12
  store i32 3, ptr %7, align 4
  br label %27

24:                                               ; preds = %12
  %25 = load i8, ptr %5, align 1
  %26 = add i8 %25, 1
  store i8 %26, ptr %5, align 1
  store i32 0, ptr %7, align 4
  br label %27

27:                                               ; preds = %24, %23
  call void @llvm.lifetime.end.p0(i64 8, ptr %6) #7
  %28 = load i32, ptr %7, align 4
  switch i32 %28, label %33 [
    i32 0, label %29
    i32 3, label %30
  ]

29:                                               ; preds = %27
  br label %8, !llvm.loop !4

30:                                               ; preds = %27, %8
  %31 = load ptr, ptr %3, align 8
  %32 = load i8, ptr %5, align 1
  call void @initHyperLogLog(ptr noundef %31, i8 noundef zeroext %32)
  call void @llvm.lifetime.end.p0(i64 1, ptr %5) #7
  ret void

33:                                               ; preds = %27
  unreachable
}